
bin/parcv2-ooo:     file format elf32-littlemips


Disassembly of section .text:

00080000 <_test>:
   80000:	24020007 	li	v1,7
   80004:	24030002 	li	a0,2
   80008:	24040000 	li	a1,0
   8000c:	24050000 	li	a2,0
   80010:	70432002 	mul	a1,v1,a0
   80014:	24440003 	addiu	a1,v1,3
   80018:	24a50001 	addiu	a2,a2,1
   8001c:	24a50001 	addiu	a2,a2,1
   80020:	24a50001 	addiu	a2,a2,1
   80024:	24a50001 	addiu	a2,a2,1
   80028:	24a50001 	addiu	a2,a2,1
   8002c:	241d0016 	li	sp,22
   80030:	241e000a 	li	at,10
   80034:	149e000a 	bne	a1,at,80060 <_fail>
   80038:	241d0017 	li	sp,23
   8003c:	241e000a 	li	at,10
   80040:	149e0007 	bne	a1,at,80060 <_fail>
   80044:	241d0018 	li	sp,24
   80048:	241e000a 	li	at,10
   8004c:	149e0004 	bne	a1,at,80060 <_fail>
   80050:	241d0019 	li	sp,25
   80054:	241e000a 	li	at,10
   80058:	149e0001 	bne	a1,at,80060 <_fail>

0008005c <_pass>:
   8005c:	241d0001 	li	sp,1

00080060 <_fail>:
   80060:	24020001 	li	v1,1
   80064:	409da800 	mtc0	sp,c0_staten
   80068:	1402ffff 	bne	zero,v1,80068 <_fail+0x8>
   8006c:	00000000 	nop
   80070:	00000000 	nop
   80074:	00000000 	nop
   80078:	00000000 	nop
   8007c:	00000000 	nop
   80080:	00000000 	nop
   80084:	00000000 	nop
   80088:	00000000 	nop
   8008c:	00000000 	nop
   80090:	00000000 	nop
   80094:	00000000 	nop
   80098:	00000000 	nop
   8009c:	00000000 	nop
   800a0:	00000000 	nop
   800a4:	00000000 	nop
   800a8:	00000000 	nop
   800ac:	00000000 	nop
   800b0:	00000000 	nop
   800b4:	00000000 	nop
   800b8:	00000000 	nop
   800bc:	00000000 	nop
   800c0:	00000000 	nop
   800c4:	00000000 	nop
   800c8:	00000000 	nop
   800cc:	00000000 	nop
   800d0:	00000000 	nop
   800d4:	00000000 	nop
   800d8:	00000000 	nop
   800dc:	00000000 	nop
   800e0:	00000000 	nop
   800e4:	00000000 	nop
   800e8:	00000000 	nop
   800ec:	00000000 	nop
   800f0:	00000000 	nop
   800f4:	00000000 	nop
   800f8:	00000000 	nop
   800fc:	00000000 	nop
   80100:	00000000 	nop
   80104:	00000000 	nop
   80108:	00000000 	nop
   8010c:	00000000 	nop
