
bin/parcv2-waw:     file format elf32-littlemips


Disassembly of section .text:

00080000 <_test>:
   80000:	24020007 	li	v1,7
   80004:	24030002 	li	a0,2
   80008:	24040000 	li	a1,0
   8000c:	24050000 	li	a2,0
   80010:	70432002 	mul	a1,v1,a0
   80014:	00432021 	addu	a1,v1,a0
   80018:	241d0011 	li	sp,17
   8001c:	241e0009 	li	at,9
   80020:	149e0001 	bne	a1,at,80028 <_fail>

00080024 <_pass>:
   80024:	241d0001 	li	sp,1

00080028 <_fail>:
   80028:	24020001 	li	v1,1
   8002c:	409da800 	mtc0	sp,c0_staten
   80030:	1402ffff 	bne	zero,v1,80030 <_fail+0x8>
   80034:	00000000 	nop
   80038:	00000000 	nop
   8003c:	00000000 	nop
   80040:	00000000 	nop
   80044:	00000000 	nop
   80048:	00000000 	nop
   8004c:	00000000 	nop
   80050:	00000000 	nop
   80054:	00000000 	nop
   80058:	00000000 	nop
   8005c:	00000000 	nop
   80060:	00000000 	nop
   80064:	00000000 	nop
   80068:	00000000 	nop
   8006c:	00000000 	nop
   80070:	00000000 	nop
   80074:	00000000 	nop
   80078:	00000000 	nop
   8007c:	00000000 	nop
   80080:	00000000 	nop
   80084:	00000000 	nop
   80088:	00000000 	nop
   8008c:	00000000 	nop
   80090:	00000000 	nop
   80094:	00000000 	nop
   80098:	00000000 	nop
   8009c:	00000000 	nop
   800a0:	00000000 	nop
   800a4:	00000000 	nop
   800a8:	00000000 	nop
   800ac:	00000000 	nop
   800b0:	00000000 	nop
   800b4:	00000000 	nop
   800b8:	00000000 	nop
   800bc:	00000000 	nop
   800c0:	00000000 	nop
   800c4:	00000000 	nop
   800c8:	00000000 	nop
   800cc:	00000000 	nop
   800d0:	00000000 	nop
   800d4:	00000000 	nop
   800d8:	00000000 	nop
   800dc:	00000000 	nop
